; Function Attrs: uwtable
define noundef i32 @_ZTv0_n88_N29colvarbias_restraint_k_moving16set_state_paramsERKNSt7__cxx1112basic_stringIcSt11char_traitsIcESaIcEEE(ptr noundef %0, ptr noundef nonnull align 8 dereferenceable(32) %1) unnamed_addr #3 align 2 {
  %3 = load ptr, ptr %0, align 8
  %4 = getelementptr inbounds i8, ptr %3, i64 -88
  %5 = load i64, ptr %4, align 8
  %6 = getelementptr inbounds i8, ptr %0, i64 %5
  %7 = load ptr, ptr %6, align 8
  %8 = getelementptr i8, ptr %7, i64 -160
  %9 = load i64, ptr %8, align 8
  %10 = getelementptr inbounds i8, ptr %6, i64 %9
  %11 = load ptr, ptr %10, align 8
  %12 = getelementptr i8, ptr %11, i64 -24
  %13 = load i64, ptr %12, align 8
  %14 = getelementptr inbounds i8, ptr %10, i64 %13
  %15 = tail call noundef i32 @_ZN10colvarbias16set_state_paramsERKNSt7__cxx1112basic_stringIcSt11char_traitsIcESaIcEEE(ptr noundef nonnull align 8 dereferenceable(312) %14, ptr noundef nonnull align 8 dereferenceable(32) %1)
  %16 = load ptr, ptr %6, align 8
  %17 = getelementptr i8, ptr %16, i64 -168
  %18 = load i64, ptr %17, align 8
  %19 = getelementptr inbounds i8, ptr %6, i64 %18
  %20 = getelementptr inbounds i8, ptr %19, i64 9
  %21 = load i8, ptr %20, align 1
  %22 = trunc i8 %21 to i1
  br i1 %22, label %23, label %32

23:                                               ; preds = %2
  %24 = getelementptr i8, ptr %16, i64 -32
  %25 = load i64, ptr %24, align 8
  %26 = getelementptr inbounds i8, ptr %6, i64 %25
  %27 = getelementptr i8, ptr %16, i64 -152
  %28 = load i64, ptr %27, align 8
  %29 = getelementptr inbounds i8, ptr %6, i64 %28
  %30 = getelementptr inbounds i8, ptr %29, i64 8
  %31 = tail call noundef zeroext i1 @_ZN11colvarparse10get_keyvalERKNSt7__cxx1112basic_stringIcSt11char_traitsIcESaIcEEEPKcRdRKdNS_10Parse_ModeE(ptr noundef nonnull align 8 dereferenceable(320) %26, ptr noundef nonnull align 8 dereferenceable(32) %1, ptr noundef nonnull @.str.15, ptr noundef nonnull align 8 dereferenceable(8) %30, ptr noundef nonnull align 8 dereferenceable(8) %30, i32 noundef 327680)
  %.pre.i = load ptr, ptr %6, align 8
  br label %32

32:                                               ; preds = %23, %2
  %33 = phi ptr [ %.pre.i, %23 ], [ %16, %2 ]
  %34 = getelementptr i8, ptr %33, i64 -40
  %35 = load i64, ptr %34, align 8
  %36 = getelementptr inbounds i8, ptr %6, i64 %35
  %37 = getelementptr inbounds i8, ptr %36, i64 48
  %38 = load ptr, ptr %37, align 8
  %39 = getelementptr inbounds i8, ptr %38, i64 193
  %40 = load i8, ptr %39, align 1
  %41 = trunc i8 %40 to i1
  br i1 %41, label %42, label %_ZN29colvarbias_restraint_k_moving16set_state_paramsERKNSt7__cxx1112basic_stringIcSt11char_traitsIcESaIcEEE.exit

42:                                               ; preds = %32
  %43 = getelementptr i8, ptr %33, i64 -32
  %44 = load i64, ptr %43, align 8
  %45 = getelementptr inbounds i8, ptr %6, i64 %44
  %46 = getelementptr i8, ptr %33, i64 -168
  %47 = load i64, ptr %46, align 8
  %48 = getelementptr inbounds i8, ptr %6, i64 %47
  %49 = getelementptr inbounds i8, ptr %48, i64 64
  %50 = tail call noundef zeroext i1 @_ZN11colvarparse10get_keyvalERKNSt7__cxx1112basic_stringIcSt11char_traitsIcESaIcEEEPKcRdRKdNS_10Parse_ModeE(ptr noundef nonnull align 8 dereferenceable(320) %45, ptr noundef nonnull align 8 dereferenceable(32) %1, ptr noundef nonnull @.str.46, ptr noundef nonnull align 8 dereferenceable(8) %49, ptr noundef nonnull align 8 dereferenceable(8) %49, i32 noundef 327680)
  br label %_ZN29colvarbias_restraint_k_moving16set_state_paramsERKNSt7__cxx1112basic_stringIcSt11char_traitsIcESaIcEEE.exit

_ZN29colvarbias_restraint_k_moving16set_state_paramsERKNSt7__cxx1112basic_stringIcSt11char_traitsIcESaIcEEE.exit: ; preds = %32, %42
  ret i32 0
}